target datalayout = "e-m:e-p270:32:32-p271:32:32-p272:64:64-i64:64-i128:128-f80:128-n8:16:32:64-S128"
target triple = "x86_64-pc-linux-gnu"

%struct.pmix_object_t = type { %union.pthread_mutex_t, ptr, i32, %struct.pmix_tma }
%struct.pmix_tma = type { ptr, ptr, ptr, ptr, ptr, ptr, ptr, ptr }
%union.pthread_mutex_t = type { %struct.__pthread_mutex_s }
%struct.__pthread_mutex_s = type { i32, i32, i32, i32, i32, i16, i16, %struct.__pthread_internal_list }
%struct.__pthread_internal_list = type { ptr, ptr }
%struct.pmix_proc = type { [256 x i8], i32 }
%struct.timeval = type { i64, i64 }
%struct.event = type { %struct.event_callback, %union.anon.2, i32, ptr, %union.anon.4, i16, i16, %struct.timeval }
%struct.event_callback = type { %struct.anon.0, i16, i8, i8, %union.anon.1, ptr }
%struct.anon.0 = type { ptr, ptr }
%union.anon.1 = type { ptr }
%union.anon.2 = type { %struct.anon.3 }
%struct.anon.3 = type { ptr, ptr }
%union.anon.4 = type { %struct.anon.5 }
%struct.anon.5 = type { %struct.anon.6, %struct.timeval }
%struct.anon.6 = type { ptr, ptr }
%struct.pmix_iof_read_event_t = type { %struct.pmix_object_t, %struct.event, %struct.timeval, i32, i8, ptr, i8, %struct.pmix_proc, i16, ptr, i64, ptr, i64 }

; Function Attrs: nounwind uwtable
define internal void @iof_read_event_construct(ptr noundef %0) #0 {
  %2 = alloca ptr, align 8
  store ptr %0, ptr %2, align 8, !tbaa !14
  %3 = load ptr, ptr %2, align 8, !tbaa !14
  %4 = getelementptr inbounds nuw %struct.pmix_iof_read_event_t, ptr %3, i32 0, i32 2
  %5 = getelementptr inbounds nuw %struct.timeval, ptr %4, i32 0, i32 0
  store i64 0, ptr %5, align 8, !tbaa !306
  %6 = load ptr, ptr %2, align 8, !tbaa !14
  %7 = getelementptr inbounds nuw %struct.pmix_iof_read_event_t, ptr %6, i32 0, i32 2
  %8 = getelementptr inbounds nuw %struct.timeval, ptr %7, i32 0, i32 1
  store i64 0, ptr %8, align 8, !tbaa !307
  %9 = load ptr, ptr %2, align 8, !tbaa !14
  %10 = getelementptr inbounds nuw %struct.pmix_iof_read_event_t, ptr %9, i32 0, i32 3
  store i32 -1, ptr %10, align 8, !tbaa !170
  %11 = load ptr, ptr %2, align 8, !tbaa !14
  %12 = getelementptr inbounds nuw %struct.pmix_iof_read_event_t, ptr %11, i32 0, i32 8
  store i16 0, ptr %12, align 8, !tbaa !186
  %13 = load ptr, ptr %2, align 8, !tbaa !14
  %14 = getelementptr inbounds nuw %struct.pmix_iof_read_event_t, ptr %13, i32 0, i32 4
  store i8 0, ptr %14, align 4, !tbaa !172
  %15 = load ptr, ptr %2, align 8, !tbaa !14
  %16 = getelementptr inbounds nuw %struct.pmix_iof_read_event_t, ptr %15, i32 0, i32 5
  store ptr null, ptr %16, align 8, !tbaa !185
  %17 = load ptr, ptr %2, align 8, !tbaa !14
  %18 = getelementptr inbounds nuw %struct.pmix_iof_read_event_t, ptr %17, i32 0, i32 6
  store i8 0, ptr %18, align 8, !tbaa !171
  %19 = load ptr, ptr %2, align 8, !tbaa !14
  %20 = getelementptr inbounds nuw %struct.pmix_iof_read_event_t, ptr %19, i32 0, i32 9
  store ptr null, ptr %20, align 8, !tbaa !166
  %21 = load ptr, ptr %2, align 8, !tbaa !14
  %22 = getelementptr inbounds nuw %struct.pmix_iof_read_event_t, ptr %21, i32 0, i32 10
  store i64 0, ptr %22, align 8, !tbaa !164
  %23 = load ptr, ptr %2, align 8, !tbaa !14
  %24 = getelementptr inbounds nuw %struct.pmix_iof_read_event_t, ptr %23, i32 0, i32 11
  store ptr null, ptr %24, align 8, !tbaa !167
  %25 = load ptr, ptr %2, align 8, !tbaa !14
  %26 = getelementptr inbounds nuw %struct.pmix_iof_read_event_t, ptr %25, i32 0, i32 12
  store i64 0, ptr %26, align 8, !tbaa !168
  ret void
}