; Function Attrs: mustprogress nofree norecurse nosync nounwind willreturn memory(argmem: write) uwtable
define internal void @iof_read_event_construct(ptr noundef writeonly captures(none) initializes((248, 269), (272, 281), (544, 546), (552, 584)) %0) #14 {
  %2 = getelementptr inbounds nuw i8, ptr %0, i64 248
  %3 = getelementptr inbounds nuw i8, ptr %0, i64 264
  tail call void @llvm.memset.p0.i64(ptr noundef nonnull align 8 dereferenceable(16) %2, i8 0, i64 16, i1 false)
  store i32 -1, ptr %3, align 8, !tbaa !151
  %4 = getelementptr inbounds nuw i8, ptr %0, i64 544
  store i16 0, ptr %4, align 8, !tbaa !165
  %5 = getelementptr inbounds nuw i8, ptr %0, i64 268
  store i8 0, ptr %5, align 4, !tbaa !153
  %6 = getelementptr inbounds nuw i8, ptr %0, i64 272
  store ptr null, ptr %6, align 8, !tbaa !164
  %7 = getelementptr inbounds nuw i8, ptr %0, i64 280
  store i8 0, ptr %7, align 8, !tbaa !152
  %8 = getelementptr inbounds nuw i8, ptr %0, i64 552
  tail call void @llvm.memset.p0.i64(ptr noundef nonnull align 8 dereferenceable(32) %8, i8 0, i64 32, i1 false)
  ret void
}